target datalayout = "e-m:e-p270:32:32-p271:32:32-p272:64:64-i64:64-i128:128-f80:128-n8:16:32:64-S128"
target triple = "x86_64-pc-linux-gnu"

%"class.std::__cxx11::basic_string" = type { %"struct.std::__cxx11::basic_string<char>::_Alloc_hider", i64, %union.anon }
%"struct.std::__cxx11::basic_string<char>::_Alloc_hider" = type { ptr }
%union.anon = type { i64, [8 x i8] }
%"class.std::allocator.99" = type { i8 }
%"class.std::type_info" = type { ptr, ptr }

@_ZTIN3g2o7EdgeSE3E = constant { ptr, ptr, ptr } { ptr getelementptr inbounds (ptr, ptr @_ZTVN10__cxxabiv120__si_class_type_infoE, i64 2), ptr @_ZTSN3g2o7EdgeSE3E, ptr @_ZTIN3g2o14BaseBinaryEdgeILi6EN5Eigen9TransformIdLi3ELi1ELi0EEENS_9VertexSE3ES4_EE }, align 8
@.str.8 = private unnamed_addr constant [50 x i8] c"basic_string: construction from null is not valid\00", align 1

; Function Attrs: mustprogress nounwind uwtable
define linkonce_odr noundef i64 @_ZNSt11char_traitsIcE6lengthEPKc(ptr noundef %0) #4 comdat align 2 {
  %2 = alloca ptr, align 8
  store ptr %0, ptr %2, align 8
  %3 = load ptr, ptr %2, align 8
  %4 = call i64 @strlen(ptr noundef %3) #3
  ret i64 %4
}

; Function Attrs: mustprogress nounwind uwtable
define linkonce_odr void @_ZNSt7__cxx1112basic_stringIcSt11char_traitsIcESaIcEE12_Alloc_hiderD2Ev(ptr noundef nonnull align 8 dereferenceable(8) %0) unnamed_addr #4 comdat align 2 {
  %2 = alloca ptr, align 8
  store ptr %0, ptr %2, align 8
  %3 = load ptr, ptr %2, align 8
  call void @_ZNSaIcED2Ev(ptr noundef nonnull align 1 dereferenceable(1) %3) #3
  ret void
}

; Function Attrs: mustprogress uwtable
define linkonce_odr void @_ZNSt7__cxx1112basic_stringIcSt11char_traitsIcESaIcEEC2IS3_EEPKcRKS3_(ptr noundef nonnull align 8 dereferenceable(32) %0, ptr noundef %1, ptr noundef nonnull align 1 dereferenceable(1) %2) unnamed_addr #5 comdat align 2 personality ptr @__gxx_personality_v0 {
  %4 = alloca ptr, align 8
  %5 = alloca ptr, align 8
  %6 = alloca ptr, align 8
  %7 = alloca ptr, align 8
  %8 = alloca i32, align 4
  %9 = alloca ptr, align 8
  store ptr %0, ptr %4, align 8
  store ptr %1, ptr %5, align 8
  store ptr %2, ptr %6, align 8
  %10 = load ptr, ptr %4, align 8
  %11 = getelementptr inbounds nuw %"class.std::__cxx11::basic_string", ptr %10, i32 0, i32 0
  %12 = call noundef ptr @_ZNSt7__cxx1112basic_stringIcSt11char_traitsIcESaIcEE13_M_local_dataEv(ptr noundef nonnull align 8 dereferenceable(32) %10)
  %13 = load ptr, ptr %6, align 8
  call void @_ZNSt7__cxx1112basic_stringIcSt11char_traitsIcESaIcEE12_Alloc_hiderC1EPcRKS3_(ptr noundef nonnull align 8 dereferenceable(8) %11, ptr noundef %12, ptr noundef nonnull align 1 dereferenceable(1) %13)
  %14 = load ptr, ptr %5, align 8
  %15 = icmp eq ptr %14, null
  br i1 %15, label %16, label %22

16:                                               ; preds = %3
  invoke void @_ZSt19__throw_logic_errorPKc(ptr noundef @.str.8) #18
          to label %17 unwind label %18

17:                                               ; preds = %16
  unreachable

18:                                               ; preds = %26, %22, %16
  %19 = landingpad { ptr, i32 }
          cleanup
  %20 = extractvalue { ptr, i32 } %19, 0
  store ptr %20, ptr %7, align 8
  %21 = extractvalue { ptr, i32 } %19, 1
  store i32 %21, ptr %8, align 4
  call void @_ZNSt7__cxx1112basic_stringIcSt11char_traitsIcESaIcEE12_Alloc_hiderD2Ev(ptr noundef nonnull align 8 dereferenceable(8) %11) #3
  br label %31

22:                                               ; preds = %3
  %23 = load ptr, ptr %5, align 8
  %24 = load ptr, ptr %5, align 8
  %25 = invoke noundef i64 @_ZNSt11char_traitsIcE6lengthEPKc(ptr noundef %24)
          to label %26 unwind label %18

26:                                               ; preds = %22
  %27 = getelementptr inbounds i8, ptr %23, i64 %25
  store ptr %27, ptr %9, align 8
  %28 = load ptr, ptr %5, align 8
  %29 = load ptr, ptr %9, align 8
  invoke void @_ZNSt7__cxx1112basic_stringIcSt11char_traitsIcESaIcEE12_M_constructIPKcEEvT_S8_St20forward_iterator_tag(ptr noundef nonnull align 8 dereferenceable(32) %10, ptr noundef %28, ptr noundef %29)
          to label %30 unwind label %18

30:                                               ; preds = %26
  ret void

31:                                               ; preds = %18
  %32 = load ptr, ptr %7, align 8
  %33 = load i32, ptr %8, align 4
  %34 = insertvalue { ptr, i32 } poison, ptr %32, 0
  %35 = insertvalue { ptr, i32 } %34, i32 %33, 1
  resume { ptr, i32 } %35
}

; Function Attrs: mustprogress nounwind uwtable
define linkonce_odr noundef ptr @_ZNKSt9type_info4nameEv(ptr noundef nonnull align 8 dereferenceable(16) %0) #4 comdat align 2 {
  %2 = alloca ptr, align 8
  store ptr %0, ptr %2, align 8
  %3 = load ptr, ptr %2, align 8
  %4 = getelementptr inbounds nuw %"class.std::type_info", ptr %3, i32 0, i32 1
  %5 = load ptr, ptr %4, align 8
  %6 = getelementptr inbounds i8, ptr %5, i64 0
  %7 = load i8, ptr %6, align 1
  %8 = sext i8 %7 to i32
  %9 = icmp eq i32 %8, 42
  br i1 %9, label %10, label %14

10:                                               ; preds = %1
  %11 = getelementptr inbounds nuw %"class.std::type_info", ptr %3, i32 0, i32 1
  %12 = load ptr, ptr %11, align 8
  %13 = getelementptr inbounds i8, ptr %12, i64 1
  br label %17

14:                                               ; preds = %1
  %15 = getelementptr inbounds nuw %"class.std::type_info", ptr %3, i32 0, i32 1
  %16 = load ptr, ptr %15, align 8
  br label %17

17:                                               ; preds = %14, %10
  %18 = phi ptr [ %13, %10 ], [ %16, %14 ]
  ret ptr %18
}

; Function Attrs: mustprogress uwtable
define void @_ZN3g2o25EdgeSE3WriteGnuplotActionC2Ev(ptr noundef nonnull align 8 dereferenceable(72) %0) unnamed_addr #5 align 2 personality ptr @__gxx_personality_v0 {
  %2 = alloca ptr, align 8
  %3 = alloca %"class.std::__cxx11::basic_string", align 8
  %4 = alloca %"class.std::allocator.99", align 1
  %5 = alloca ptr, align 8
  %6 = alloca i32, align 4
  store ptr %0, ptr %2, align 8
  %7 = load ptr, ptr %2, align 8
  %8 = call noundef ptr @_ZNKSt9type_info4nameEv(ptr noundef nonnull align 8 dereferenceable(16) @_ZTIN3g2o7EdgeSE3E) #3
  call void @_ZNSaIcEC1Ev(ptr noundef nonnull align 1 dereferenceable(1) %4) #3
  invoke void @_ZNSt7__cxx1112basic_stringIcSt11char_traitsIcESaIcEEC2IS3_EEPKcRKS3_(ptr noundef nonnull align 8 dereferenceable(32) %3, ptr noundef %8, ptr noundef nonnull align 1 dereferenceable(1) %4)
          to label %9 unwind label %11

9:                                                ; preds = %1
  invoke void @_ZN3g2o18WriteGnuplotActionC2ERKNSt7__cxx1112basic_stringIcSt11char_traitsIcESaIcEEE(ptr noundef nonnull align 8 dereferenceable(72) %7, ptr noundef nonnull align 8 dereferenceable(32) %3)
          to label %10 unwind label %15

10:                                               ; preds = %9
  call void @_ZNSt7__cxx1112basic_stringIcSt11char_traitsIcESaIcEED1Ev(ptr noundef nonnull align 8 dereferenceable(32) %3) #3
  call void @_ZNSaIcED1Ev(ptr noundef nonnull align 1 dereferenceable(1) %4) #3
  store ptr getelementptr inbounds inrange(-16, 32) ({ [6 x ptr] }, ptr @_ZTVN3g2o25EdgeSE3WriteGnuplotActionE, i32 0, i32 0, i32 2), ptr %7, align 8
  ret void

11:                                               ; preds = %1
  %12 = landingpad { ptr, i32 }
          cleanup
  %13 = extractvalue { ptr, i32 } %12, 0
  store ptr %13, ptr %5, align 8
  %14 = extractvalue { ptr, i32 } %12, 1
  store i32 %14, ptr %6, align 4
  br label %19

15:                                               ; preds = %9
  %16 = landingpad { ptr, i32 }
          cleanup
  %17 = extractvalue { ptr, i32 } %16, 0
  store ptr %17, ptr %5, align 8
  %18 = extractvalue { ptr, i32 } %16, 1
  store i32 %18, ptr %6, align 4
  call void @_ZNSt7__cxx1112basic_stringIcSt11char_traitsIcESaIcEED1Ev(ptr noundef nonnull align 8 dereferenceable(32) %3) #3
  br label %19

19:                                               ; preds = %15, %11
  call void @_ZNSaIcED1Ev(ptr noundef nonnull align 1 dereferenceable(1) %4) #3
  br label %20

20:                                               ; preds = %19
  %21 = load ptr, ptr %5, align 8
  %22 = load i32, ptr %6, align 4
  %23 = insertvalue { ptr, i32 } poison, ptr %21, 0
  %24 = insertvalue { ptr, i32 } %23, i32 %22, 1
  resume { ptr, i32 } %24
}